Certificate:
    Data:
        Version: 3 (0x2)
        Serial Number: 6455143515247804559 (0x599546d38883008f)
    Signature Algorithm: sha256WithRSAEncryption
        Issuer: CN=WeBank DEV CA, O=WeBank Co., Ltd., L=Shenzhen, C=CN
        Validity
            Not Before: Jan 11 06:58:04 2017 GMT
            Not After : Jan  9 06:58:04 2027 GMT
        Subject: C=CN, O=WeBank Co., Ltd., CN=rongmaikeji
        Subject Public Key Info:
            Public Key Algorithm: rsaEncryption
                Public-Key: (2048 bit)
                Modulus:
                    00:9c:bc:5c:44:b2:35:88:1d:43:57:0e:7e:e5:dc:
                    77:6e:0c:a0:be:6f:57:e8:d4:6a:c2:d3:cd:96:57:
                    7d:ca:2d:12:9d:43:64:59:5d:4e:88:fd:7c:93:ed:
                    84:bf:e2:ae:8f:96:eb:8a:ef:f1:b9:31:b6:b9:04:
                    a2:3f:1e:9d:37:ce:6b:ed:2c:6a:93:be:03:51:19:
                    e7:6a:3e:76:39:47:3d:a7:25:bc:5a:87:cb:e0:aa:
                    6f:9f:48:83:45:dc:4b:f4:c7:ff:06:ec:8e:74:73:
                    30:07:70:10:91:54:e9:e1:5a:25:1f:1e:bc:f1:88:
                    50:9e:a2:1f:09:82:23:48:50:06:55:f0:3f:18:ac:
                    70:6e:86:8c:07:d3:22:b8:f9:4c:a7:8c:2f:4f:40:
                    d7:15:77:55:f9:c8:4c:68:70:e4:9b:1b:be:98:be:
                    7c:24:a8:16:55:35:ab:9e:b5:87:a1:44:0b:24:a0:
                    c5:e6:24:d7:7e:8a:50:32:14:e0:c8:dc:5f:ec:f6:
                    5a:7d:51:d6:f9:2f:92:ca:5f:8b:f4:96:f8:60:8e:
                    7d:7a:f4:f5:57:1b:bf:49:7c:bf:92:f5:4f:a8:2f:
                    a0:a7:8b:4d:cb:0a:b3:4b:a3:e4:71:e5:70:c2:e0:
                    70:e6:e9:16:b7:11:e0:48:49:4e:33:6e:78:3e:57:
                    2d:83
                Exponent: 65537 (0x10001)
        X509v3 extensions:
            X509v3 Basic Constraints: 
                CA:FALSE
            X509v3 Key Usage: 
                Digital Signature, Non Repudiation, Key Encipherment
            X509v3 Extended Key Usage: 
                TLS Web Client Authentication, E-mail Protection
    Signature Algorithm: sha256WithRSAEncryption
         77:20:99:20:3a:3a:1a:f5:8e:06:a2:31:1a:d9:1d:d5:1c:bd:
         0b:b5:95:ff:35:00:63:d9:6f:b9:b3:8e:58:cd:fa:ff:45:60:
         93:55:68:3a:a1:d7:ee:0d:b3:77:fa:83:fd:77:8d:7a:c9:5f:
         94:c0:f2:1c:7d:ac:8c:17:67:64:89:e8:55:20:cb:a1:32:0e:
         91:0c:01:cd:06:37:5a:c3:b1:89:42:0d:52:55:2e:87:7d:17:
         23:ea:cc:ef:67:3e:47:9f:df:9a:4f:28:0f:a5:4a:fd:ea:93:
         b2:a2:35:7a:6f:5e:8e:2a:99:48:bc:2b:9a:ac:0e:9a:49:bc:
         68:29:b2:21:b2:78:5a:68:e5:ef:3c:11:2e:66:72:d4:bd:30:
         a2:8e:40:d3:39:c6:1a:0c:94:2f:5a:e7:e5:32:c8:89:89:d8:
         65:75:23:91:d7:a8:9a:bb:a1:13:6a:38:3e:c6:bf:5d:e1:46:
         83:51:d8:a6:7e:c0:ac:d1:07:a6:3a:46:9d:e3:82:67:82:e1:
         01:cc:85:6d:f5:fd:f8:c6:18:a7:e8:1f:50:ba:64:ac:37:f3:
         82:e8:15:37:f8:7c:3f:70:a8:62:65:3f:1d:25:15:05:b9:3d:
         8d:74:3a:eb:63:c4:1b:0c:fa:b9:65:36:fe:ac:61:3a:fc:f7:
         f5:37:af:56
-----BEGIN CERTIFICATE-----
MIIDTDCCAjSgAwIBAgIIWZVG04iDAI8wDQYJKoZIhvcNAQELBQAwUzEWMBQGA1UE
AwwNV2VCYW5rIERFViBDQTEZMBcGA1UECgwQV2VCYW5rIENvLiwgTHRkLjERMA8G
A1UEBwwIU2hlbnpoZW4xCzAJBgNVBAYTAkNOMB4XDTE3MDExMTA2NTgwNFoXDTI3
MDEwOTA2NTgwNFowPjELMAkGA1UEBhMCQ04xGTAXBgNVBAoMEFdlQmFuayBDby4s
IEx0ZC4xFDASBgNVBAMMC3JvbmdtYWlrZWppMIIBIjANBgkqhkiG9w0BAQEFAAOC
AQ8AMIIBCgKCAQEAnLxcRLI1iB1DVw5+5dx3bgygvm9X6NRqwtPNlld9yi0SnUNk
WV1OiP18k+2Ev+Kuj5briu/xuTG2uQSiPx6dN85r7Sxqk74DURnnaj52OUc9pyW8
WofL4Kpvn0iDRdxL9Mf/BuyOdHMwB3AQkVTp4VolHx688YhQnqIfCYIjSFAGVfA/
GKxwboaMB9MiuPlMp4wvT0DXFXdV+chMaHDkmxu+mL58JKgWVTWrnrWHoUQLJKDF
5iTXfopQMhTgyNxf7PZafVHW+S+Syl+L9Jb4YI59evT1Vxu/SXy/kvVPqC+gp4tN
ywqzS6PkceVwwuBw5ukWtxHgSElOM254PlctgwIDAQABozkwNzAJBgNVHRMEAjAA
MAsGA1UdDwQEAwIF4DAdBgNVHSUEFjAUBggrBgEFBQcDAgYIKwYBBQUHAwQwDQYJ
KoZIhvcNAQELBQADggEBAHcgmSA6Ohr1jgaiMRrZHdUcvQu1lf81AGPZb7mzjljN
+v9FYJNVaDqh1+4Ns3f6g/13jXrJX5TA8hx9rIwXZ2SJ6FUgy6EyDpEMAc0GN1rD
sYlCDVJVLod9FyPqzO9nPkef35pPKA+lSv3qk7KiNXpvXo4qmUi8K5qsDppJvGgp
siGyeFpo5e88ES5mctS9MKKOQNM5xhoMlC9a5+UyyImJ2GV1I5HXqJq7oRNqOD7G
v13hRoNR2KZ+wKzRB6Y6Rp3jgmeC4QHMhW31/fjGGKfoH1C6ZKw384LoFTf4fD9w
qGJlPx0lFQW5PY10OutjxBsM+rllNv6sYTr89/U3r1Y=
-----END CERTIFICATE-----
